; Function Attrs: mustprogress nofree norecurse nosync nounwind willreturn memory(read, inaccessiblemem: none) uwtable
define hidden noundef i64 @_ZNK4cvc58internal15ResourceManager20getResourceRemainingEv(ptr noundef nonnull readonly align 8 captures(none) dereferenceable(3392) %0) local_unnamed_addr #13 align 2 {
  %2 = load ptr, ptr %0, align 8, !tbaa !61
  %3 = getelementptr inbounds nuw i8, ptr %2, i64 224
  %4 = load ptr, ptr %3, align 8, !tbaa !62
  %5 = getelementptr inbounds nuw i8, ptr %4, i64 232
  %6 = load i64, ptr %5, align 8, !tbaa !278
  %7 = getelementptr inbounds nuw i8, ptr %0, i64 40
  %8 = load i64, ptr %7, align 8, !tbaa !254
  %.0 = tail call i64 @llvm.usub.sat.i64(i64 %6, i64 %8)
  ret i64 %.0
}